target datalayout = "e-m:e-p270:32:32-p271:32:32-p272:64:64-i64:64-i128:128-f80:128-n8:16:32:64-S128"
target triple = "x86_64-pc-linux-gnu"

%struct.rb_addrinfo = type { ptr, i32 }
%struct.addrinfo = type { i32, i32, i32, i32, i32, ptr, ptr, ptr }
%struct.hostent_arg = type { i64, ptr, ptr }
%struct.hostent = type { ptr, ptr, i32, i32, ptr }

; Function Attrs: inlinehint nounwind sspstrong willreturn memory(none) uwtable
define internal i64 @RB_INT2FIX(i64 noundef %0) #6 {
  %2 = alloca i64, align 8
  %3 = alloca i64, align 8
  %4 = alloca i64, align 8
  %5 = alloca i64, align 8
  %6 = alloca i64, align 8
  %7 = alloca i64, align 8
  store i64 %0, ptr %2, align 8, !tbaa !31
  call void @llvm.lifetime.start.p0(i64 8, ptr %3) #24
  %8 = load i64, ptr %2, align 8, !tbaa !31
  store i64 %8, ptr %3, align 8, !tbaa !31
  call void @llvm.lifetime.start.p0(i64 8, ptr %4) #24
  %9 = load i64, ptr %3, align 8, !tbaa !31
  %10 = shl i64 %9, 1
  %11 = add i64 %10, 1
  store i64 %11, ptr %4, align 8, !tbaa !31
  call void @llvm.lifetime.start.p0(i64 8, ptr %5) #24
  %12 = load i64, ptr %4, align 8, !tbaa !31
  store i64 %12, ptr %5, align 8, !tbaa !31
  call void @llvm.lifetime.start.p0(i64 8, ptr %6) #24
  %13 = load i64, ptr %5, align 8, !tbaa !31
  store i64 %13, ptr %6, align 8, !tbaa !31
  call void @llvm.lifetime.start.p0(i64 8, ptr %7) #24
  %14 = load i64, ptr %6, align 8, !tbaa !31
  store i64 %14, ptr %7, align 8, !tbaa !31
  %15 = load i64, ptr %7, align 8, !tbaa !31
  call void @llvm.lifetime.end.p0(i64 8, ptr %7) #24
  call void @llvm.lifetime.end.p0(i64 8, ptr %6) #24
  call void @llvm.lifetime.end.p0(i64 8, ptr %5) #24
  call void @llvm.lifetime.end.p0(i64 8, ptr %4) #24
  call void @llvm.lifetime.end.p0(i64 8, ptr %3) #24
  ret i64 %15
}

; Function Attrs: inlinehint nounwind sspstrong uwtable
define internal i64 @rb_int2num_inline(i32 noundef %0) #5 {
  %2 = alloca i64, align 8
  %3 = alloca i32, align 4
  store i32 %0, ptr %3, align 4, !tbaa !27
  %4 = load i32, ptr %3, align 4, !tbaa !27
  %5 = sext i32 %4 to i64
  %6 = icmp slt i64 %5, 4611686018427387904
  br i1 %6, label %7, label %15

7:                                                ; preds = %1
  %8 = load i32, ptr %3, align 4, !tbaa !27
  %9 = sext i32 %8 to i64
  %10 = icmp sge i64 %9, -4611686018427387904
  br i1 %10, label %11, label %15

11:                                               ; preds = %7
  %12 = load i32, ptr %3, align 4, !tbaa !27
  %13 = sext i32 %12 to i64
  %14 = call i64 @RB_INT2FIX(i64 noundef %13) #28
  store i64 %14, ptr %2, align 8
  br label %19

15:                                               ; preds = %7, %1
  %16 = load i32, ptr %3, align 4, !tbaa !27
  %17 = sext i32 %16 to i64
  %18 = call i64 @rb_int2big(i64 noundef %17)
  store i64 %18, ptr %2, align 8
  br label %19

19:                                               ; preds = %15, %11
  %20 = load i64, ptr %2, align 8
  ret i64 %20
}

; Function Attrs: nounwind sspstrong uwtable
define internal i64 @make_hostent_internal(i64 noundef %0) #0 {
  %2 = alloca i64, align 8
  %3 = alloca ptr, align 8
  %4 = alloca i64, align 8
  %5 = alloca ptr, align 8
  %6 = alloca ptr, align 8
  %7 = alloca ptr, align 8
  %8 = alloca ptr, align 8
  %9 = alloca i64, align 8
  %10 = alloca i64, align 8
  %11 = alloca ptr, align 8
  %12 = alloca ptr, align 8
  %13 = alloca [1025 x i8], align 16
  store i64 %0, ptr %2, align 8, !tbaa !31
  call void @llvm.lifetime.start.p0(i64 8, ptr %3) #24
  %14 = load i64, ptr %2, align 8, !tbaa !31
  %15 = inttoptr i64 %14 to ptr
  store ptr %15, ptr %3, align 8, !tbaa !111
  call void @llvm.lifetime.start.p0(i64 8, ptr %4) #24
  %16 = load ptr, ptr %3, align 8, !tbaa !111
  %17 = getelementptr inbounds nuw %struct.hostent_arg, ptr %16, i32 0, i32 0
  %18 = load i64, ptr %17, align 8, !tbaa !107
  store i64 %18, ptr %4, align 8, !tbaa !31
  call void @llvm.lifetime.start.p0(i64 8, ptr %5) #24
  %19 = load ptr, ptr %3, align 8, !tbaa !111
  %20 = getelementptr inbounds nuw %struct.hostent_arg, ptr %19, i32 0, i32 1
  %21 = load ptr, ptr %20, align 8, !tbaa !109
  %22 = getelementptr inbounds nuw %struct.rb_addrinfo, ptr %21, i32 0, i32 0
  %23 = load ptr, ptr %22, align 8, !tbaa !15
  store ptr %23, ptr %5, align 8, !tbaa !16
  call void @llvm.lifetime.start.p0(i64 8, ptr %6) #24
  %24 = load ptr, ptr %3, align 8, !tbaa !111
  %25 = getelementptr inbounds nuw %struct.hostent_arg, ptr %24, i32 0, i32 2
  %26 = load ptr, ptr %25, align 8, !tbaa !110
  store ptr %26, ptr %6, align 8, !tbaa !26
  call void @llvm.lifetime.start.p0(i64 8, ptr %7) #24
  call void @llvm.lifetime.start.p0(i64 8, ptr %8) #24
  call void @llvm.lifetime.start.p0(i64 8, ptr %9) #24
  call void @llvm.lifetime.start.p0(i64 8, ptr %10) #24
  call void @llvm.lifetime.start.p0(i64 8, ptr %11) #24
  call void @llvm.lifetime.start.p0(i64 8, ptr %12) #24
  call void @llvm.lifetime.start.p0(i64 1025, ptr %13) #24
  %27 = call i64 @rb_ary_new()
  store i64 %27, ptr %9, align 8, !tbaa !31
  %28 = load ptr, ptr %5, align 8, !tbaa !16
  %29 = getelementptr inbounds nuw %struct.addrinfo, ptr %28, i32 0, i32 6
  %30 = load ptr, ptr %29, align 8, !tbaa !79
  %31 = icmp ne ptr %30, null
  br i1 %31, label %32, label %36

32:                                               ; preds = %1
  %33 = load ptr, ptr %5, align 8, !tbaa !16
  %34 = getelementptr inbounds nuw %struct.addrinfo, ptr %33, i32 0, i32 6
  %35 = load ptr, ptr %34, align 8, !tbaa !79
  store ptr %35, ptr %12, align 8, !tbaa !30
  br label %40

36:                                               ; preds = %1
  %37 = load i64, ptr %4, align 8, !tbaa !31
  %38 = getelementptr inbounds [1025 x i8], ptr %13, i64 0, i64 0
  %39 = call ptr @host_str(i64 noundef %37, ptr noundef %38, i64 noundef 1025, ptr noundef null)
  store ptr %39, ptr %12, align 8, !tbaa !30
  br label %40

40:                                               ; preds = %36, %32
  %41 = load i64, ptr %9, align 8, !tbaa !31
  %42 = load ptr, ptr %12, align 8, !tbaa !30
  %43 = call i64 @rb_str_new_cstr(ptr noundef %42)
  %44 = call i64 @rb_ary_push(i64 noundef %41, i64 noundef %43)
  %45 = load ptr, ptr %5, align 8, !tbaa !16
  %46 = getelementptr inbounds nuw %struct.addrinfo, ptr %45, i32 0, i32 6
  %47 = load ptr, ptr %46, align 8, !tbaa !79
  %48 = icmp ne ptr %47, null
  br i1 %48, label %49, label %86

49:                                               ; preds = %40
  %50 = load ptr, ptr %5, align 8, !tbaa !16
  %51 = getelementptr inbounds nuw %struct.addrinfo, ptr %50, i32 0, i32 6
  %52 = load ptr, ptr %51, align 8, !tbaa !79
  %53 = call i64 @strlen(ptr noundef %52) #30
  %54 = icmp ult i64 %53, 1025
  br i1 %54, label %55, label %86

55:                                               ; preds = %49
  %56 = load ptr, ptr %5, align 8, !tbaa !16
  %57 = getelementptr inbounds nuw %struct.addrinfo, ptr %56, i32 0, i32 6
  %58 = load ptr, ptr %57, align 8, !tbaa !79
  %59 = call ptr @gethostbyname(ptr noundef %58)
  store ptr %59, ptr %8, align 8, !tbaa !113
  %60 = icmp ne ptr %59, null
  br i1 %60, label %61, label %86

61:                                               ; preds = %55
  %62 = call i64 @rb_ary_new()
  store i64 %62, ptr %10, align 8, !tbaa !31
  %63 = load ptr, ptr %8, align 8, !tbaa !113
  %64 = getelementptr inbounds nuw %struct.hostent, ptr %63, i32 0, i32 1
  %65 = load ptr, ptr %64, align 8, !tbaa !115
  %66 = icmp ne ptr %65, null
  br i1 %66, label %67, label %85

67:                                               ; preds = %61
  %68 = load ptr, ptr %8, align 8, !tbaa !113
  %69 = getelementptr inbounds nuw %struct.hostent, ptr %68, i32 0, i32 1
  %70 = load ptr, ptr %69, align 8, !tbaa !115
  store ptr %70, ptr %11, align 8, !tbaa !118
  br label %71

71:                                               ; preds = %81, %67
  %72 = load ptr, ptr %11, align 8, !tbaa !118
  %73 = load ptr, ptr %72, align 8, !tbaa !30
  %74 = icmp ne ptr %73, null
  br i1 %74, label %75, label %84

75:                                               ; preds = %71
  %76 = load i64, ptr %10, align 8, !tbaa !31
  %77 = load ptr, ptr %11, align 8, !tbaa !118
  %78 = load ptr, ptr %77, align 8, !tbaa !30
  %79 = call i64 @rb_str_new_cstr(ptr noundef %78)
  %80 = call i64 @rb_ary_push(i64 noundef %76, i64 noundef %79)
  br label %81

81:                                               ; preds = %75
  %82 = load ptr, ptr %11, align 8, !tbaa !118
  %83 = getelementptr inbounds nuw ptr, ptr %82, i32 1
  store ptr %83, ptr %11, align 8, !tbaa !118
  br label %71, !llvm.loop !119

84:                                               ; preds = %71
  br label %85

85:                                               ; preds = %84, %61
  br label %88

86:                                               ; preds = %55, %49, %40
  %87 = call i64 @rb_ary_new_capa(i64 noundef 0)
  store i64 %87, ptr %10, align 8, !tbaa !31
  br label %88

88:                                               ; preds = %86, %85
  %89 = load i64, ptr %9, align 8, !tbaa !31
  %90 = load i64, ptr %10, align 8, !tbaa !31
  %91 = call i64 @rb_ary_push(i64 noundef %89, i64 noundef %90)
  %92 = load i64, ptr %9, align 8, !tbaa !31
  %93 = load ptr, ptr %5, align 8, !tbaa !16
  %94 = getelementptr inbounds nuw %struct.addrinfo, ptr %93, i32 0, i32 1
  %95 = load i32, ptr %94, align 4, !tbaa !67
  %96 = call i64 @rb_int2num_inline(i32 noundef %95)
  %97 = call i64 @rb_ary_push(i64 noundef %92, i64 noundef %96)
  %98 = load ptr, ptr %5, align 8, !tbaa !16
  store ptr %98, ptr %7, align 8, !tbaa !16
  br label %99

99:                                               ; preds = %113, %88
  %100 = load ptr, ptr %7, align 8, !tbaa !16
  %101 = icmp ne ptr %100, null
  br i1 %101, label %102, label %117

102:                                              ; preds = %99
  %103 = load i64, ptr %9, align 8, !tbaa !31
  %104 = load ptr, ptr %6, align 8, !tbaa !26
  %105 = load ptr, ptr %7, align 8, !tbaa !16
  %106 = getelementptr inbounds nuw %struct.addrinfo, ptr %105, i32 0, i32 5
  %107 = load ptr, ptr %106, align 8, !tbaa !21
  %108 = load ptr, ptr %7, align 8, !tbaa !16
  %109 = getelementptr inbounds nuw %struct.addrinfo, ptr %108, i32 0, i32 4
  %110 = load i32, ptr %109, align 8, !tbaa !78
  %111 = call i64 %104(ptr noundef %107, i32 noundef %110)
  %112 = call i64 @rb_ary_push(i64 noundef %103, i64 noundef %111)
  br label %113

113:                                              ; preds = %102
  %114 = load ptr, ptr %7, align 8, !tbaa !16
  %115 = getelementptr inbounds nuw %struct.addrinfo, ptr %114, i32 0, i32 7
  %116 = load ptr, ptr %115, align 8, !tbaa !17
  store ptr %116, ptr %7, align 8, !tbaa !16
  br label %99, !llvm.loop !120

117:                                              ; preds = %99
  %118 = load i64, ptr %9, align 8, !tbaa !31
  call void @llvm.lifetime.end.p0(i64 1025, ptr %13) #24
  call void @llvm.lifetime.end.p0(i64 8, ptr %12) #24
  call void @llvm.lifetime.end.p0(i64 8, ptr %11) #24
  call void @llvm.lifetime.end.p0(i64 8, ptr %10) #24
  call void @llvm.lifetime.end.p0(i64 8, ptr %9) #24
  call void @llvm.lifetime.end.p0(i64 8, ptr %8) #24
  call void @llvm.lifetime.end.p0(i64 8, ptr %7) #24
  call void @llvm.lifetime.end.p0(i64 8, ptr %6) #24
  call void @llvm.lifetime.end.p0(i64 8, ptr %5) #24
  call void @llvm.lifetime.end.p0(i64 8, ptr %4) #24
  call void @llvm.lifetime.end.p0(i64 8, ptr %3) #24
  ret i64 %118
}