; Function Attrs: nounwind sspstrong uwtable
define internal i64 @make_hostent_internal(i64 noundef %0) #0 {
  %2 = alloca [1025 x i8], align 16
  %3 = inttoptr i64 %0 to ptr
  %4 = load i64, ptr %3, align 8, !tbaa !99
  %5 = getelementptr inbounds nuw i8, ptr %3, i64 8
  %6 = load ptr, ptr %5, align 8, !tbaa !102
  %7 = load ptr, ptr %6, align 8, !tbaa !13
  %8 = getelementptr inbounds nuw i8, ptr %3, i64 16
  %9 = load ptr, ptr %8, align 8, !tbaa !103
  call void @llvm.lifetime.start.p0(i64 1025, ptr nonnull %2) #21
  %10 = tail call i64 @rb_ary_new() #21
  %11 = getelementptr inbounds nuw i8, ptr %7, i64 32
  %12 = load ptr, ptr %11, align 8, !tbaa !87
  %.not = icmp eq ptr %12, null
  br i1 %.not, label %13, label %15

13:                                               ; preds = %1
  %14 = call ptr @host_str(i64 noundef %4, ptr noundef nonnull %2, i64 noundef 1025, ptr noundef null)
  br label %15

15:                                               ; preds = %1, %13
  %.0 = phi ptr [ %14, %13 ], [ %12, %1 ]
  %16 = call i64 @rb_str_new_cstr(ptr noundef %.0) #21
  %17 = call i64 @rb_ary_push(i64 noundef %10, i64 noundef %16) #21
  %18 = load ptr, ptr %11, align 8, !tbaa !87
  %.not37 = icmp eq ptr %18, null
  br i1 %.not37, label %34, label %19

19:                                               ; preds = %15
  %20 = call i64 @strlen(ptr noundef nonnull dereferenceable(1) %18) #24
  %21 = icmp ult i64 %20, 1025
  br i1 %21, label %22, label %34

22:                                               ; preds = %19
  %23 = call ptr @gethostbyname(ptr noundef nonnull %18) #21
  %.not38 = icmp eq ptr %23, null
  br i1 %.not38, label %34, label %24

24:                                               ; preds = %22
  %25 = call i64 @rb_ary_new() #21
  %26 = getelementptr inbounds nuw i8, ptr %23, i64 8
  %27 = load ptr, ptr %26, align 8, !tbaa !104
  %.not39 = icmp eq ptr %27, null
  br i1 %.not39, label %.lr.ph46.preheader, label %.preheader

.preheader:                                       ; preds = %24
  %28 = load ptr, ptr %27, align 8, !tbaa !61
  %.not4042 = icmp eq ptr %28, null
  br i1 %.not4042, label %.lr.ph46.preheader, label %.lr.ph

.lr.ph:                                           ; preds = %.preheader, %.lr.ph
  %29 = phi ptr [ %33, %.lr.ph ], [ %28, %.preheader ]
  %.02943 = phi ptr [ %32, %.lr.ph ], [ %27, %.preheader ]
  %30 = call i64 @rb_str_new_cstr(ptr noundef nonnull %29) #21
  %31 = call i64 @rb_ary_push(i64 noundef %25, i64 noundef %30) #21
  %32 = getelementptr inbounds nuw i8, ptr %.02943, i64 8
  %33 = load ptr, ptr %32, align 8, !tbaa !61
  %.not40 = icmp eq ptr %33, null
  br i1 %.not40, label %.lr.ph46.preheader, label %.lr.ph, !llvm.loop !107

34:                                               ; preds = %22, %19, %15
  %35 = call i64 @rb_ary_new_capa(i64 noundef 0) #21
  br label %.lr.ph46.preheader

.lr.ph46.preheader:                               ; preds = %.lr.ph, %34, %24, %.preheader
  %.030 = phi i64 [ %25, %24 ], [ %35, %34 ], [ %25, %.preheader ], [ %25, %.lr.ph ]
  %36 = call i64 @rb_ary_push(i64 noundef %10, i64 noundef %.030) #21
  %37 = getelementptr inbounds nuw i8, ptr %7, i64 4
  %38 = load i32, ptr %37, align 4, !tbaa !77
  %39 = sext i32 %38 to i64
  %40 = shl nsw i64 %39, 1
  %41 = or disjoint i64 %40, 1
  %42 = call i64 @rb_ary_push(i64 noundef %10, i64 noundef %41) #21
  br label %.lr.ph46

.lr.ph46:                                         ; preds = %.lr.ph46.preheader, %.lr.ph46
  %.03145 = phi ptr [ %50, %.lr.ph46 ], [ %7, %.lr.ph46.preheader ]
  %43 = getelementptr inbounds nuw i8, ptr %.03145, i64 24
  %44 = load ptr, ptr %43, align 8, !tbaa !18
  %45 = getelementptr inbounds nuw i8, ptr %.03145, i64 16
  %46 = load i32, ptr %45, align 8, !tbaa !86
  %47 = call i64 %9(ptr noundef %44, i32 noundef %46) #21
  %48 = call i64 @rb_ary_push(i64 noundef %10, i64 noundef %47) #21
  %49 = getelementptr inbounds nuw i8, ptr %.03145, i64 40
  %50 = load ptr, ptr %49, align 8, !tbaa !14
  %.not41 = icmp eq ptr %50, null
  br i1 %.not41, label %._crit_edge, label %.lr.ph46, !llvm.loop !108

._crit_edge:                                      ; preds = %.lr.ph46
  call void @llvm.lifetime.end.p0(i64 1025, ptr nonnull %2) #21
  ret i64 %10
}